; Function Attrs: nounwind uwtable
define void @Gia_ManGenNeuronAdder(ptr noundef %0, i32 noundef %1, ptr noundef readonly captures(none) %2, ptr noundef readonly captures(none) %3, i32 noundef %4, ptr noundef captures(none) initializes((4, 8)) %5) local_unnamed_addr #0 {
  %7 = alloca i32, align 4
  %8 = alloca i32, align 4
  store i32 %4, ptr %7, align 4, !tbaa !19
  call void @llvm.lifetime.start.p0(i64 4, ptr nonnull %8) #21
  store i32 -1, ptr %8, align 4, !tbaa !19
  %9 = getelementptr inbounds nuw i8, ptr %5, i64 4
  store i32 0, ptr %9, align 4, !tbaa !41
  %10 = icmp sgt i32 %1, 0
  br i1 %10, label %.lr.ph, label %._crit_edge

.lr.ph:                                           ; preds = %6
  %.phi.trans.insert.i = getelementptr inbounds nuw i8, ptr %5, i64 8
  %wide.trip.count = zext nneg i32 %1 to i64
  br label %11

11:                                               ; preds = %.lr.ph, %Vec_IntPush.exit
  %indvars.iv = phi i64 [ 0, %.lr.ph ], [ %indvars.iv.next, %Vec_IntPush.exit ]
  %12 = getelementptr inbounds nuw i32, ptr %2, i64 %indvars.iv
  %13 = load i32, ptr %12, align 4, !tbaa !19
  %14 = getelementptr inbounds nuw i32, ptr %3, i64 %indvars.iv
  %15 = load i32, ptr %14, align 4, !tbaa !19
  %16 = load i32, ptr %7, align 4, !tbaa !19
  call void @Wlc_BlastFullAdder(ptr noundef %0, i32 noundef %13, i32 noundef %15, i32 noundef %16, ptr noundef nonnull %7, ptr noundef nonnull %8) #21
  %17 = load i32, ptr %8, align 4, !tbaa !19
  %18 = load i32, ptr %9, align 4, !tbaa !41
  %19 = load i32, ptr %5, align 8, !tbaa !43
  %20 = icmp eq i32 %18, %19
  br i1 %20, label %21, label %.Vec_IntGrow.exit10_crit_edge.i

.Vec_IntGrow.exit10_crit_edge.i:                  ; preds = %11
  %.pre.i = load ptr, ptr %.phi.trans.insert.i, align 8, !tbaa !44
  br label %Vec_IntPush.exit

21:                                               ; preds = %11
  %22 = icmp slt i32 %18, 16
  br i1 %22, label %23, label %30

23:                                               ; preds = %21
  %24 = load ptr, ptr %.phi.trans.insert.i, align 8, !tbaa !44
  %.not9.i.i = icmp eq ptr %24, null
  br i1 %.not9.i.i, label %27, label %25

25:                                               ; preds = %23
  %26 = call dereferenceable_or_null(64) ptr @realloc(ptr noundef nonnull %24, i64 noundef 64) #22
  br label %Vec_IntGrow.exit.i

27:                                               ; preds = %23
  %28 = call noalias dereferenceable_or_null(64) ptr @malloc(i64 noundef 64) #23
  br label %Vec_IntGrow.exit.i

Vec_IntGrow.exit.i:                               ; preds = %27, %25
  %29 = phi ptr [ %26, %25 ], [ %28, %27 ]
  store ptr %29, ptr %.phi.trans.insert.i, align 8, !tbaa !44
  store i32 16, ptr %5, align 8, !tbaa !43
  br label %Vec_IntPush.exit

30:                                               ; preds = %21
  %31 = shl nuw nsw i32 %18, 1
  %32 = load ptr, ptr %.phi.trans.insert.i, align 8, !tbaa !44
  %.not9.i9.i = icmp eq ptr %32, null
  %33 = zext nneg i32 %31 to i64
  %34 = shl nuw nsw i64 %33, 2
  br i1 %.not9.i9.i, label %37, label %35

35:                                               ; preds = %30
  %36 = call ptr @realloc(ptr noundef nonnull %32, i64 noundef %34) #22
  br label %39

37:                                               ; preds = %30
  %38 = call noalias ptr @malloc(i64 noundef %34) #23
  br label %39

39:                                               ; preds = %37, %35
  %40 = phi ptr [ %36, %35 ], [ %38, %37 ]
  store ptr %40, ptr %.phi.trans.insert.i, align 8, !tbaa !44
  store i32 %31, ptr %5, align 8, !tbaa !43
  br label %Vec_IntPush.exit

Vec_IntPush.exit:                                 ; preds = %.Vec_IntGrow.exit10_crit_edge.i, %Vec_IntGrow.exit.i, %39
  %41 = phi ptr [ %.pre.i, %.Vec_IntGrow.exit10_crit_edge.i ], [ %40, %39 ], [ %29, %Vec_IntGrow.exit.i ]
  %42 = load i32, ptr %9, align 4, !tbaa !41
  %43 = add nsw i32 %42, 1
  store i32 %43, ptr %9, align 4, !tbaa !41
  %44 = sext i32 %42 to i64
  %45 = getelementptr inbounds i32, ptr %41, i64 %44
  store i32 %17, ptr %45, align 4, !tbaa !19
  %indvars.iv.next = add nuw nsw i64 %indvars.iv, 1
  %exitcond.not = icmp eq i64 %indvars.iv.next, %wide.trip.count
  br i1 %exitcond.not, label %._crit_edge, label %11, !llvm.loop !120

._crit_edge:                                      ; preds = %Vec_IntPush.exit, %6
  call void @llvm.lifetime.end.p0(i64 4, ptr nonnull %8) #21
  ret void
}